target datalayout = "e-m:e-p270:32:32-p271:32:32-p272:64:64-i64:64-i128:128-f80:128-n8:16:32:64-S128"
target triple = "x86_64-pc-linux-gnu"

; Function Attrs: nounwind uwtable
define void @Gia_ManPrintDsd(ptr noundef %0, i32 noundef %1, i32 noundef %2, i32 noundef %3) #0 {
  %5 = alloca ptr, align 8
  %6 = alloca i32, align 4
  %7 = alloca i32, align 4
  %8 = alloca i32, align 4
  %9 = alloca i32, align 4
  store ptr %0, ptr %5, align 8, !tbaa !30
  store i32 %1, ptr %6, align 4, !tbaa !16
  store i32 %2, ptr %7, align 4, !tbaa !16
  store i32 %3, ptr %8, align 4, !tbaa !16
  %10 = load i32, ptr %6, align 4, !tbaa !16
  %11 = icmp eq i32 %10, -1
  br i1 %11, label %12, label %26

12:                                               ; preds = %4
  call void @llvm.lifetime.start.p0(i64 4, ptr %9) #10
  store i32 0, ptr %9, align 4, !tbaa !16
  br label %13

13:                                               ; preds = %22, %12
  %14 = load i32, ptr %9, align 4, !tbaa !16
  %15 = load i32, ptr %7, align 4, !tbaa !16
  %16 = icmp slt i32 %14, %15
  br i1 %16, label %18, label %17

17:                                               ; preds = %13
  call void @llvm.lifetime.end.p0(i64 4, ptr %9) #10
  br label %25

18:                                               ; preds = %13
  %19 = load ptr, ptr %5, align 8, !tbaa !30
  %20 = load i32, ptr %9, align 4, !tbaa !16
  %21 = load i32, ptr %8, align 4, !tbaa !16
  call void @Gia_ManPrintDsdOne(ptr noundef %19, i32 noundef %20, i32 noundef %21)
  br label %22

22:                                               ; preds = %18
  %23 = load i32, ptr %9, align 4, !tbaa !16
  %24 = add nsw i32 %23, 1
  store i32 %24, ptr %9, align 4, !tbaa !16
  br label %13, !llvm.loop !83

25:                                               ; preds = %17
  br label %30

26:                                               ; preds = %4
  %27 = load ptr, ptr %5, align 8, !tbaa !30
  %28 = load i32, ptr %6, align 4, !tbaa !16
  %29 = load i32, ptr %8, align 4, !tbaa !16
  call void @Gia_ManPrintDsdOne(ptr noundef %27, i32 noundef %28, i32 noundef %29)
  br label %30

30:                                               ; preds = %26, %25
  ret void
}