; Function Attrs: nounwind uwtable
define void @Gia_ManPrintDsd(ptr noundef %0, i32 noundef %1, i32 noundef %2, i32 noundef %3) local_unnamed_addr #0 {
  %5 = icmp eq i32 %1, -1
  br i1 %5, label %.preheader, label %8

.preheader:                                       ; preds = %4
  %6 = icmp sgt i32 %2, 0
  br i1 %6, label %.lr.ph, label %.loopexit

.lr.ph:                                           ; preds = %.preheader, %.lr.ph
  %.010 = phi i32 [ %7, %.lr.ph ], [ 0, %.preheader ]
  tail call void @Gia_ManPrintDsdOne(ptr noundef %0, i32 noundef %.010, i32 noundef %3)
  %7 = add nuw nsw i32 %.010, 1
  %exitcond.not = icmp eq i32 %7, %2
  br i1 %exitcond.not, label %.loopexit, label %.lr.ph, !llvm.loop !71

8:                                                ; preds = %4
  tail call void @Gia_ManPrintDsdOne(ptr noundef %0, i32 noundef %1, i32 noundef %3)
  br label %.loopexit

.loopexit:                                        ; preds = %.lr.ph, %.preheader, %8
  ret void
}